(dp0
S'class_sl'
p1
(dp2
S'OE'
p3
(I6
I12
tp4
sS'WT'
p5
(I12
I18
tp6
sS'KO'
p7
(I0
I6
tp8
ssS'class_hierarchy'
p9
(dp10
g3
(lp11
S'OE_subcl'
p12
asg5
(lp13
S'WT_subcl'
p14
asg7
(lp15
S'KO_subcl'
p16
assS'feats'
p17
(dp18
S'k__Bacteria.p__Proteobacteria.c__Alphaproteobacteria.o__Rhizobiales'
p19
(lp20
F134388.76324247124
aF145627.22595963604
aF132601.44225594652
aF140145.82886553716
aF108108.10810810812
aF105028.55550912391
aF118223.67443932878
aF116374.48713166725
aF92930.89753772836
aF77100.11507479867
aF103084.1900527925
aF122138.51057664437
aF102955.42635658913
aF99162.3036649214
aF90833.7280909522
aF97880.53949903653
aF84362.3534294905
aF73488.47567086066
asS'k__Bacteria.p__Proteobacteria.c__Gammaproteobacteria.o__Pseudomonadales'
p21
(lp22
F2975.8362099750043
aF8903.838543727741
aF2690.776019804105
aF2251.76924726571
aF2059.202059202057
aF3343.083994985367
aF21090.152977870173
aF13303.493721248296
aF24755.096637543007
aF4091.5483953458593
aF22784.10669630451
aF10866.415531729934
aF6056.201550387593
aF9005.235602094246
aF2486.972998578876
aF5394.990366088628
aF1556.5009857839564
aF1558.8464536243202
asS'k__Bacteria.p__Proteobacteria.c__Betaproteobacteria.o__Burkholderiales.f__Oxalobacteraceae.g__Pseudoduganella'
p23
(lp24
F42613.97452684209
aF24831.816383062902
aF38747.174685179256
aF13188.934162556301
aF12612.612612612606
aF25630.31062822115
aF17822.664488341015
aF14173.815740395377
aF22637.013502779944
aF35545.326684567255
aF6529.591553209221
aF9272.674587076206
aF17320.736434108534
aF18848.16753926698
aF22027.47513026996
aF15157.353885677567
aF51468.29926325618
aF32624.429350851762
asS'k__Bacteria.p__Proteobacteria.c__Alphaproteobacteria.o__Rhizobiales.f__Boseaceae'
p25
(lp26
F2261.6355195810033
aF4352.987732489124
aF14314.928425357895
aF7291.443276860394
aF1544.4015444015433
aF2089.4274968658588
aF2227.833061042631
aF3605.6197936093427
aF2118.0831347630337
aF1790.052422963824
aF3612.114476243399
aF2752.825268038246
aF2785.8527131783007
aF4607.3298429319375
aF3671.2458550449983
aF1669.8779704559968
aF1452.7342533983567
aF779.4232268121586
asS'k__Bacteria.p__Actinobacteria.c__Actinobacteria.o__Streptosporangiales.f__Thermomonosporaceae.g__Unassigned'
p27
(lp28
F46184.9779788121
aF37989.711119905005
aF47680.5510709288
aF29809.135749517525
aF85714.28571428567
aF51260.62125644246
aF53913.56007723149
aF61668.53164242205
aF48054.011119936564
aF63546.861015215494
aF82522.92303417616
aF69979.71602434083
aF62984.49612403096
aF56753.926701570694
aF79938.4178114638
aF72447.01348747587
aF87786.65559821516
aF89410.97873288051
asS'k__Bacteria.p__Proteobacteria.c__Alphaproteobacteria.o__Sphingomonadales.f__Erythrobacteraceae'
p29
(lp30
F2261.6355195810033
aF3264.740799366843
aF2152.620815843284
aF1286.7252841518339
aF1673.1016731016782
aF1950.1323304081386
aF891.1332244170507
aF1367.6488872311331
aF1588.5623510722828
aF895.026211481909
aF1806.0572381217078
aF1883.5120254998483
aF847.8682170542639
aF2198.9528795811475
aF1776.4092846991991
aF2569.0430314707783
aF1764.0344505551561
aF668.0770515532787
asS'k__Bacteria.p__Actinobacteria.c__Actinobacteria.o__Propionibacteriales.f__Kribbellaceae.g__Kribbella'
p31
(lp32
F5713.605523152009
aF3759.398496240607
aF4735.765794855239
aF7827.578811923657
aF15315.315315315303
aF6407.577657055295
aF10545.076488935103
aF9573.542210617925
aF7148.530579825265
aF7799.514128628057
aF9863.8510697416
aF10866.415531729934
aF8842.054263565895
aF14764.397905759219
aF11132.164850781624
aF8220.93770070648
aF11414.340562415682
aF8350.963144415995
asS'k__Bacteria.p__Proteobacteria.c__Alphaproteobacteria.o__Rhizobiales.f__Phyllobacteriaceae'
p33
(lp34
F12022.378288299018
aF5540.166204986144
aF9471.531589710465
aF4932.446922582025
aF7078.507078507076
aF7104.053489343924
aF8762.810040101003
aF5346.263831903523
aF4500.926661371465
aF6393.04436772791
aF5834.954153931646
aF6085.19269776877
aF5329.457364341083
aF6596.858638743457
aF6158.218853623875
aF6936.416184971089
aF4980.803154508669
aF6569.424340273914
asS'k__Bacteria.p__Actinobacteria.c__Actinobacteria.o__Pseudonocardiales'
p35
(lp36
F64754.19592905603
aF62227.938266719444
aF116994.94134108271
aF109371.6491529059
aF145559.84555984547
aF75497.9802200864
aF71736.2245655725
aF87529.52878279245
aF80751.9195128409
aF57665.260196905874
aF83217.56043345382
aF84033.61344537808
aF104772.28682170539
aF114345.54973821984
aF103742.30222643299
aF93513.16634553618
aF70976.44495174848
aF104554.05856808824
asS'k__Bacteria.p__Proteobacteria.c__Alphaproteobacteria.o__Caulobacterales.f__Unassigned'
p37
(lp38
F1428.4013807880021
aF494.6576968737627
aF861.0483263373151
aF1822.8608192150914
aF1287.0012870012868
aF1671.5419974926835
aF2376.3552651121354
aF1367.6488872311331
aF1853.322742917666
aF1917.913310318373
aF1667.1297582661891
aF2752.825268038246
aF2180.232558139528
aF314.1361256544497
aF1776.4092846991991
aF2183.6865767501554
aF1660.2677181695562
aF668.0770515532787
asS'k__Bacteria.p__Bacteroidetes.c__Cytophagia'
p39
(lp40
F0.0
aF296.7946181242584
aF645.7862447529866
aF321.6813210379592
aF257.40025740025675
aF1810.8371639504192
aF1485.2220406950844
aF1989.3074723361892
aF2250.463330685725
aF1917.913310318373
aF2639.6221172547857
aF4636.337293538112
aF1937.9844961240249
aF837.6963350785335
aF2723.8275698720913
aF2569.0430314707783
aF1764.0344505551561
aF1002.1155773299188
asS'k__Bacteria.p__Proteobacteria.c__Alphaproteobacteria.o__Rhizobiales.f__Devosiaceae.g__Devosia'
p41
(lp42
F17259.85001785495
aF27008.31024930749
aF14853.083629318717
aF17263.564229037158
aF10682.110682110679
aF14765.287644518745
aF9505.421060448542
aF12184.508268059188
aF10590.415673815198
aF5753.739930955119
aF17504.862461794874
aF10576.644450883796
aF13081.395348837199
aF9633.507853403133
aF7934.6281383230735
aF10533.076429030187
aF7263.671266991798
aF6235.385814497266
asS'k__Bacteria.p__Proteobacteria.c__Gammaproteobacteria.o__Nevskiales'
p43
(lp44
F2975.8362099750043
aF890.3838543727741
aF1937.3587342589558
aF1393.9523911644865
aF3346.2033462033405
aF2925.1984956122083
aF2970.444081390169
aF3605.6197936093427
aF3839.0256817580075
aF1790.052422963824
aF2917.477076965823
aF5505.650536076492
aF4239.34108527132
aF2722.5130890052396
aF3434.391283751783
aF3339.755940912009
aF3631.835633495899
aF1224.8079278476787
asS'k__Bacteria.p__Firmicutes.c__Bacilli.o__Bacillales.f__Paenibacillaceae1'
p45
(lp46
F119.03344839900018
aF0.0
aF22602.518566354483
aF0.0
aF128.7001287001287
aF139.29516645772395
aF1039.65542848656
aF0.0
aF529.5207836907599
aF255.7217747091164
aF1250.3473186996387
aF434.65662126919733
aF0.0
aF104.71204188481674
aF118.42728564661303
aF0.0
aF103.76673238559711
aF0.0
asS'k__Bacteria.p__Firmicutes.c__Bacilli.o__Bacillales.f__Bacillaceae1'
p47
(lp48
F7022.9734555410105
aF1879.6992481203035
aF3228.931223764926
aF2466.2234612910124
aF6821.106821106813
aF7104.053489343924
aF35793.85118075157
aF7459.903021260724
aF17871.3264495632
aF15599.028257256174
aF12225.618227285366
aF31150.391190959104
aF3512.5968992248104
aF1151.8324607329844
aF1776.4092846991991
aF3982.0166987797033
aF1245.2007886271665
aF2783.654381471993
asS'k__Bacteria.p__Proteobacteria.c__Gammaproteobacteria.o__Nevskiales.f__Nevskiaceae.g__Unassigned'
p49
(lp50
F2975.8362099750043
aF890.3838543727741
aF1937.3587342589558
aF1393.9523911644865
aF3346.2033462033405
aF2925.1984956122083
aF2970.444081390169
aF3605.6197936093427
aF3839.0256817580075
aF1790.052422963824
aF2917.477076965823
aF5505.650536076492
aF4239.34108527132
aF2722.5130890052396
aF3434.391283751783
aF3339.755940912009
aF3631.835633495899
aF1224.8079278476787
asS'k__Bacteria.p__Proteobacteria.c__Gammaproteobacteria.o__Unassigned.f__Unassigned.g__Unassigned'
p51
(lp52
F14164.980359481022
aF11673.921646220819
aF13884.40426218921
aF16191.293158910577
aF18404.11840411848
aF20894.274968658585
aF24357.641467399335
aF20887.728459530077
aF18400.847233253968
aF22247.79439969315
aF17088.080022228463
aF28977.108084613155
aF23740.310077519425
aF16020.942408376906
aF22145.902415916695
aF24149.00449582529
aF18262.94489986505
aF17370.003340385196
asS'k__Bacteria.p__Actinobacteria.c__Actinobacteria.o__Pseudonocardiales.f__Pseudonocardiaceae.g__Amycolatopsis'
p53
(lp54
F19521.48553743597
aF13058.963197467358
aF14960.714670110854
aF20587.60454642931
aF38352.638352638314
aF14208.106978687834
aF7871.6768156839435
aF13427.825438269307
aF15488.482922954754
aF4602.991944764101
aF11947.76326757433
aF7823.819182845548
aF11022.286821705422
aF65549.73821989534
aF25580.29369966842
aF9505.459216441866
aF18262.94489986505
aF15922.503062019836
asS'k__Bacteria.p__Unassigned'
p55
(lp56
F18093.084156647998
aF13355.757815591616
aF10870.735120008612
aF16727.428693973867
aF26512.22651222643
aF22705.11213260905
aF91044.11109460873
aF80566.95262961592
aF33492.18956844065
aF49226.44163150497
aF72242.28952486799
aF89394.37844103151
aF27374.03100775197
aF67225.1308900524
aF46897.205116058714
aF55619.78163134235
aF51572.06599564174
aF64580.78165015026
asS'k__Bacteria.p__Unassigned.c__Unassigned.o__Unassigned.f__Unassigned'
p57
(lp58
F18093.084156647998
aF13355.757815591616
aF10870.735120008612
aF16727.428693973867
aF26512.22651222643
aF22705.11213260905
aF91044.11109460873
aF80566.95262961592
aF33492.18956844065
aF49226.44163150497
aF72242.28952486799
aF89394.37844103151
aF27374.03100775197
aF67225.1308900524
aF46897.205116058714
aF55619.78163134235
aF51572.06599564174
aF64580.78165015026
asS'k__Bacteria.p__Actinobacteria.c__Actinobacteria.o__Micromonosporales.f__Micromonosporaceae.g__Unassigned'
p59
(lp60
F5951.672419950009
aF2473.2884843688203
aF4197.610590894418
aF3752.9487454428554
aF9137.709137709133
aF7104.053489343924
aF8762.810040101003
aF6838.244436155665
aF7545.67116759334
aF11251.758087201139
aF16393.44262295079
aF8548.246884960878
aF6419.573643410847
aF7539.267015706807
aF6868.782567503551
aF9890.81567116249
aF6952.3710698350105
aF8350.963144415995
asS'k__Bacteria.p__Proteobacteria.c__Gammaproteobacteria.o__Xanthomonadales.f__Xanthomonadaceae.g__Pseudoxanthomonas'
p61
(lp62
F1309.3679323890021
aF4451.919271863877
aF2906.0381013884335
aF2037.3150332404077
aF1930.5019305019255
aF4039.559827273997
aF4307.14391801574
aF9946.53736168096
aF3574.2652899126247
aF1790.052422963824
aF4723.534315087531
aF1738.6264850767961
aF2180.232558139528
aF1884.816753926698
aF2368.5457129322604
aF5394.990366088628
aF726.3671266991797
aF2004.2311546598403
asS'k__Bacteria.p__Proteobacteria.c__Gammaproteobacteria.o__Xanthomonadales.f__Xanthomonadaceae.g__Unassigned'
p63
(lp64
F2737.769313177004
aF1385.0415512465395
aF3013.6691421805976
aF1286.7252841518339
aF2187.902187902189
aF3203.7888285276476
aF2821.921877320665
aF1118.9854531891096
aF1588.5623510722828
aF2429.3568597366148
aF1667.1297582661891
aF1159.0843233845262
aF1211.2403100775186
aF1675.3926701570695
aF1421.1274277593548
aF2183.6865767501554
aF1452.7342533983567
aF1670.192628883193
asS'k__Bacteria.p__Bacteroidetes.c__Flavobacteriia.o__Flavobacteriales.f__Flavobacteriaceae'
p65
(lp66
F22259.254850613077
aF50455.085081123936
aF27338.284361209735
aF92322.53913789411
aF15958.815958816027
aF20615.68463574318
aF19456.408733105593
aF25363.670272286534
aF62748.21286735502
aF79529.47193453528
aF99194.22061683805
aF18545.34917415238
aF58502.90697674421
aF41465.96858638744
aF17053.52913311233
aF36865.76750160562
aF44930.99512296351
aF41198.08484578553
asS'k__Bacteria.p__Bacteroidetes.c__Chitinophagia'
p67
(lp68
F595.1672419950008
aF296.7946181242584
aF645.7862447529866
aF750.5897490885695
aF900.9009009009002
aF1392.9516645772394
aF2079.3108569731266
aF2735.29777446226
aF4236.166269526083
aF5114.4354941823285
aF2639.6221172547857
aF4781.222833961163
aF1090.1162790697672
aF1989.5287958115193
aF3789.6731406916138
aF3596.6602440590805
aF4150.669295423884
aF3340.3852577664006
asS'k__Bacteria.p__Proteobacteria.c__Alphaproteobacteria.o__Rhodospirillales.f__Rhodospirillaceae'
p69
(lp70
F1428.4013807880021
aF1385.0415512465395
aF2260.2518566354483
aF1393.9523911644865
aF5019.3050193050185
aF3760.9694943585423
aF7426.110203475431
aF5221.932114882512
aF5030.447445062216
aF4986.574606827779
aF6390.664073353704
aF9562.445667922344
aF3270.348837209307
aF2094.2408376963403
aF4026.5277119848442
aF4881.18175979447
aF2801.701774411127
aF5010.577886649594
asS'k__Bacteria.p__Proteobacteria.c__Betaproteobacteria.o__Burkholderiales.f__Oxalobacteraceae.g__Unassigned'
p71
(lp72
F11308.177597905016
aF6430.5500593589195
aF11301.259283177269
aF7076.989062835091
aF6048.906048906039
aF9472.071319125223
aF2970.444081390169
aF2486.634340420236
aF3574.2652899126247
aF2812.9395218002774
aF1806.0572381217078
aF1883.5120254998483
aF4118.217054263569
aF3141.361256544497
aF4144.954997631459
aF2697.495183044314
aF4358.202760195084
aF3117.6929072486405
asS'k__Bacteria.p__Chloroflexi.c__Chloroflexia.o__Herpetosiphonales'
p73
(lp74
F2975.8362099750043
aF6628.413138108425
aF4843.396835647403
aF2787.904782328973
aF4504.504504504509
aF4457.445326647172
aF8317.243427892474
aF12184.508268059188
aF7810.431559438708
aF1022.8870988364671
aF15282.022784106708
aF4491.451753115042
aF11022.286821705422
aF13717.277486910993
aF6395.073424917105
aF6807.964033397553
aF1660.2677181695562
aF33737.89110344064
asS'k__Bacteria.p__Actinobacteria.c__Actinobacteria.o__Pseudonocardiales.f__Pseudonocardiaceae'
p75
(lp76
F64754.19592905603
aF62227.938266719444
aF116994.94134108271
aF109371.6491529059
aF145559.84555984547
aF75497.9802200864
aF71736.2245655725
aF87529.52878279245
aF80751.9195128409
aF57665.260196905874
aF83217.56043345382
aF84033.61344537808
aF104772.28682170539
aF114345.54973821984
aF103742.30222643299
aF93513.16634553618
aF70976.44495174848
aF104554.05856808824
asS'k__Bacteria.p__Actinobacteria.c__Actinobacteria.o__Streptomycetales'
p77
(lp78
F22021.18795381496
aF14048.278591214927
aF28091.70164675497
aF42676.38859103581
aF39382.23938223942
aF43320.79676835207
aF40546.561710975766
aF40532.139748849884
aF65528.196981731526
aF112261.85909730218
aF43762.15615448743
aF31440.16227180521
aF40697.67441860464
aF53193.71727748697
aF75201.3263855992
aF44701.34874759149
aF41610.459686624396
aF48101.54771183614
asS'k__Bacteria.p__Actinobacteria.c__Actinobacteria.o__Micrococcales.f__Microbacteriaceae.g__Agromyces'
p79
(lp80
F5475.538626354008
aF4451.919271863877
aF7749.434937035837
aF7613.124597898354
aF13642.213642213643
aF6686.167989970751
aF7723.154611614439
aF8330.225040407808
aF8207.572147206782
aF7543.792353918942
aF9030.286190608507
aF9707.331208345413
aF10416.666666666664
aF5340.3141361256585
aF8289.909995262904
aF9377.007064868332
aF4565.736224966269
aF5901.3472887206335
asS'k__Bacteria.p__Proteobacteria.c__Unassigned.o__Unassigned.f__Unassigned.g__Unassigned'
p81
(lp82
F59278.65730270212
aF18698.0609418282
aF21418.577117640703
aF26592.322539137916
aF39253.539253539246
aF36495.333611923634
aF49309.37175107682
aF36429.19308715648
aF39846.43897272969
aF32348.804500703303
aF29174.77076965823
aF50854.824688496075
aF46269.37984496118
aF28376.963350785278
aF36001.894836570325
aF51766.217084136115
aF31026.252983293572
aF36076.160783877065
asS'k__Bacteria.p__Proteobacteria.c__Alphaproteobacteria.o__Rhodospirillales'
p83
(lp84
F3571.0034519700052
aF1681.836169370798
aF3659.455386933597
aF4396.311387518762
aF7207.207207207208
aF5711.101824766681
aF10099.509876726574
aF6465.249285092629
aF7016.150383902574
aF6904.487917146152
aF7641.011392053354
aF12749.927557229781
aF4360.465116279071
aF2827.2251308900472
aF4855.518711511136
aF6807.964033397553
aF3735.602365881498
aF6346.731989756154
asS'k__Bacteria.p__Unassigned.c__Unassigned'
p85
(lp86
F18093.084156647998
aF13355.757815591616
aF10870.735120008612
aF16727.428693973867
aF26512.22651222643
aF22705.11213260905
aF91044.11109460873
aF80566.95262961592
aF33492.18956844065
aF49226.44163150497
aF72242.28952486799
aF89394.37844103151
aF27374.03100775197
aF67225.1308900524
aF46897.205116058714
aF55619.78163134235
aF51572.06599564174
aF64580.78165015026
asS'k__Bacteria.p__Proteobacteria.c__Alphaproteobacteria.o__Rhizobiales.f__Phyllobacteriaceae.g__Unassigned'
p87
(lp88
F8808.475181526013
aF3363.672338741596
aF5812.0762027768815
aF2144.542140253052
aF5148.005148005151
aF4875.330826020331
aF6089.410366849842
aF3729.9515106303543
aF2779.984114376491
aF3963.68750799131
aF4028.8969158099544
aF4926.108374384233
aF3512.5968992248104
aF3246.073298429318
aF2486.972998578876
aF5651.8946692357
aF3320.5354363391125
aF4565.193185614074
asS'k__Bacteria.p__Proteobacteria.c__Unassigned.o__Unassigned'
p89
(lp90
F59278.65730270212
aF18698.0609418282
aF21418.577117640703
aF26592.322539137916
aF39253.539253539246
aF36495.333611923634
aF49309.37175107682
aF36429.19308715648
aF39846.43897272969
aF32348.804500703303
aF29174.77076965823
aF50854.824688496075
aF46269.37984496118
aF28376.963350785278
aF36001.894836570325
aF51766.217084136115
aF31026.252983293572
aF36076.160783877065
asS'k__Bacteria.p__Unassigned.c__Unassigned.o__Unassigned.f__Unassigned.g__Unassigned'
p91
(lp92
F18093.084156647998
aF13355.757815591616
aF10870.735120008612
aF16727.428693973867
aF26512.22651222643
aF22705.11213260905
aF91044.11109460873
aF80566.95262961592
aF33492.18956844065
aF49226.44163150497
aF72242.28952486799
aF89394.37844103151
aF27374.03100775197
aF67225.1308900524
aF46897.205116058714
aF55619.78163134235
aF51572.06599564174
aF64580.78165015026
asS'k__Bacteria.p__Proteobacteria.c__Alphaproteobacteria.o__Rhizobiales.f__Unassigned'
p93
(lp94
F16069.515533864951
aF13157.894736842112
aF14099.666343773482
aF18871.97083422689
aF19562.41956241961
aF17551.190973673216
aF20199.019753453114
aF16909.113514857636
aF14694.201747418603
aF13808.975834292303
aF14309.530425118093
aF23036.800927267504
aF17684.108527131848
aF9842.931937172776
aF9947.891994315489
aF21323.057161207442
aF12036.940956729266
aF9464.424897004796
asS'k__Bacteria.p__Proteobacteria.c__Betaproteobacteria.o__Burkholderiales.f__Comamonadaceae.g__Aquabacterium'
p95
(lp96
F1071.3010355910014
aF2275.425405619315
aF1183.941448713809
aF643.3626420759169
aF643.5006435006434
aF2228.722663323578
aF1930.7886529036057
aF1616.3123212731534
aF2382.8435266084166
aF1790.052422963824
aF1667.1297582661891
aF2607.939727615177
aF1211.2403100775186
aF1465.968586387441
aF3552.8185693983833
aF2825.94733461785
aF1037.6673238559724
aF1002.1155773299188
asS'k__Bacteria.p__Proteobacteria.c__Alphaproteobacteria.o__Rhizobiales.f__Hyphomicrobiaceae'
p97
(lp98
F2023.568622783003
aF2275.425405619315
aF861.0483263373151
aF2680.677675316315
aF2831.40283140283
aF2089.4274968658588
aF2079.3108569731266
aF2486.634340420236
aF1588.5623510722828
aF1534.3306482546952
aF972.4923589886082
aF3622.1385105766444
aF1574.6124031007703
aF523.5602094240837
aF1657.981999052584
aF1156.0693641618486
aF933.9005914703739
aF556.7308762943986
asS'k__Bacteria.p__Actinobacteria'
p99
(lp100
F230686.82299726264
aF165809.25999208484
aF297276.9346679586
aF269676.1741368225
aF422007.72200772126
aF263825.0452709285
aF270904.5002227833
aF314186.24891209794
aF296266.8784749802
aF350466.6922388449
aF340233.398166157
aF290785.27962909243
aF323158.9147286815
aF344397.90575916186
aF366177.1672193272
aF323699.4219653171
aF301234.8241153888
aF355639.68377686245
asS'k__Bacteria.p__Proteobacteria.c__Gammaproteobacteria.o__Xanthomonadales'
p101
(lp102
F23211.52243780496
aF13949.347051840094
aF14207.297384565758
aF11794.981771391815
aF8494.208494208491
aF14625.992478061009
aF19159.36432496652
aF20017.406440383013
aF11119.936457505964
aF11379.618974555688
aF12781.328146707425
aF9272.674587076206
aF19137.596899224805
aF13926.701570680621
aF19422.074846044485
aF14515.093127809874
aF12555.774618657251
aF9464.424897004796
asS'k__Bacteria.p__Firmicutes.c__Bacilli.o__Bacillales.f__Bacillaceae1.g__Bacillus'
p103
(lp104
F7022.9734555410105
aF1879.6992481203035
aF3228.931223764926
aF2466.2234612910124
aF6821.106821106813
aF7104.053489343924
aF35793.85118075157
aF7459.903021260724
aF17871.3264495632
aF15599.028257256174
aF12225.618227285366
aF31150.391190959104
aF3512.5968992248104
aF1151.8324607329844
aF1776.4092846991991
aF3982.0166987797033
aF1245.2007886271665
aF2783.654381471993
asS'k__Bacteria.p__Bacteroidetes.c__Flavobacteriia.o__Flavobacteriales.f__Flavobacteriaceae.g__Flavobacterium'
p105
(lp106
F22259.254850613077
aF50455.085081123936
aF27338.284361209735
aF92322.53913789411
aF15958.815958816027
aF20615.68463574318
aF19456.408733105593
aF25363.670272286534
aF62748.21286735502
aF79529.47193453528
aF99194.22061683805
aF18545.34917415238
aF58502.90697674421
aF41465.96858638744
aF17053.52913311233
aF36865.76750160562
aF44930.99512296351
aF41198.08484578553
asS'k__Bacteria.p__Proteobacteria.c__Unassigned.o__Unassigned.f__Unassigned'
p107
(lp108
F59278.65730270212
aF18698.0609418282
aF21418.577117640703
aF26592.322539137916
aF39253.539253539246
aF36495.333611923634
aF49309.37175107682
aF36429.19308715648
aF39846.43897272969
aF32348.804500703303
aF29174.77076965823
aF50854.824688496075
aF46269.37984496118
aF28376.963350785278
aF36001.894836570325
aF51766.217084136115
aF31026.252983293572
aF36076.160783877065
asS'k__Bacteria.p__Actinobacteria.c__Actinobacteria.o__Streptosporangiales'
p109
(lp110
F56064.75419592907
aF42837.35654926794
aF69422.02131094606
aF35599.39952820076
aF105662.80566280565
aF66861.67989970751
aF64904.20317837527
aF77334.32798706957
aF61689.17129997364
aF70834.93159442529
aF101139.20533481527
aF81715.44479860907
aF75944.76744186046
aF74240.83769633505
aF94386.5466603505
aF84007.70712909441
aF106360.90069523704
aF106112.90502171258
asS'k__Bacteria.p__Bacteroidetes.c__Chitinophagia.o__Chitinophagales'
p111
(lp112
F595.1672419950008
aF296.7946181242584
aF645.7862447529866
aF750.5897490885695
aF900.9009009009002
aF1392.9516645772394
aF2079.3108569731266
aF2735.29777446226
aF4236.166269526083
aF5114.4354941823285
aF2639.6221172547857
aF4781.222833961163
aF1090.1162790697672
aF1989.5287958115193
aF3789.6731406916138
aF3596.6602440590805
aF4150.669295423884
aF3340.3852577664006
asS'k__Bacteria.p__Proteobacteria.c__Alphaproteobacteria.o__Rhizobiales.f__Boseaceae.g__Bosea'
p113
(lp114
F2261.6355195810033
aF4352.987732489124
aF14314.928425357895
aF7291.443276860394
aF1544.4015444015433
aF2089.4274968658588
aF2227.833061042631
aF3605.6197936093427
aF2118.0831347630337
aF1790.052422963824
aF3612.114476243399
aF2752.825268038246
aF2785.8527131783007
aF4607.3298429319375
aF3671.2458550449983
aF1669.8779704559968
aF1452.7342533983567
aF779.4232268121586
asS'k__Bacteria.p__Proteobacteria'
p115
(lp116
F718247.8276395663
aF761278.1954887225
aF632547.6267355504
aF614947.4587175642
aF522908.6229086233
aF677949.5751497416
aF569879.6970147042
aF555514.1116498824
aF574794.8106963207
aF496867.4082598135
aF454292.8591275355
aF555780.9330628801
aF573401.1627906975
aF529109.9476439796
aF555068.6878256749
aF566859.3448940259
aF593338.1757808449
aF497717.403407193
asS'k__Bacteria.p__Proteobacteria.c__Betaproteobacteria.o__Burkholderiales'
p117
(lp118
F436614.6887275326
aF508310.24930747953
aF399418.79237972177
aF357924.0832082356
aF303217.50321750337
aF454938.0136509263
aF296598.8415268083
aF307348.0044759425
aF350542.75880328374
aF321442.27080935985
aF235204.22339538808
aF287742.6832802081
aF339268.4108527124
aF324816.75392670115
aF344741.82851728995
aF334617.8548490679
aF408425.8586697102
aF329139.29406524927
asS'k__Bacteria.p__Proteobacteria.c__Unassigned'
p119
(lp120
F59278.65730270212
aF18698.0609418282
aF21418.577117640703
aF26592.322539137916
aF39253.539253539246
aF36495.333611923634
aF49309.37175107682
aF36429.19308715648
aF39846.43897272969
aF32348.804500703303
aF29174.77076965823
aF50854.824688496075
aF46269.37984496118
aF28376.963350785278
aF36001.894836570325
aF51766.217084136115
aF31026.252983293572
aF36076.160783877065
asS'k__Bacteria.p__Proteobacteria.c__Betaproteobacteria.o__Burkholderiales.f__Comamonadaceae.g__Variovorax'
p121
(lp122
F15355.314843471038
aF12564.305500593595
aF9041.007426541806
aF9221.531203088143
aF10682.110682110679
aF13093.745647026046
aF12624.387345908215
aF10692.527663807046
aF10193.275086047139
aF9717.427438946428
aF8474.576271186448
aF11156.186612576072
aF11264.534883720924
aF12146.596858638744
aF15040.265277119779
aF12074.502247912646
aF7678.7381965341965
aF8128.270793898234
asS'k__Bacteria.p__Proteobacteria.c__Alphaproteobacteria.o__Sphingomonadales.f__Sphingomonadaceae.g__Sphingomonas'
p123
(lp124
F9522.675871920013
aF14641.86782746339
aF18082.01485308364
aF19408.10636929018
aF7078.507078507076
aF8357.709987463435
aF7871.6768156839435
aF5346.263831903523
aF4103.786073603391
aF6009.461705664247
aF3612.114476243399
aF5505.650536076492
aF5329.457364341083
aF4502.617801047117
aF9000.473709142581
aF5009.633911368005
aF9650.306111860538
aF4453.847010355201
asS'k__Bacteria.p__Proteobacteria.c__Alphaproteobacteria.o__Rhizobiales.f__Unassigned.g__Unassigned'
p125
(lp126
F16069.515533864951
aF13157.894736842112
aF14099.666343773482
aF18871.97083422689
aF19562.41956241961
aF17551.190973673216
aF20199.019753453114
aF16909.113514857636
aF14694.201747418603
aF13808.975834292303
aF14309.530425118093
aF23036.800927267504
aF17684.108527131848
aF9842.931937172776
aF9947.891994315489
aF21323.057161207442
aF12036.940956729266
aF9464.424897004796
asS'k__Bacteria.p__Actinobacteria.c__Actinobacteria.o__Unassigned.f__Unassigned.g__Unassigned'
p127
(lp128
F11189.144149506015
aF4451.919271863877
aF15929.39403724036
aF12331.117306455077
aF22007.722007722063
aF12954.450480568326
aF14406.653794742315
aF16909.113514857636
aF17341.805665872434
aF18539.828666410907
aF14865.24034454015
aF17820.92147203712
aF18895.348837209363
aF19790.575916230388
aF18474.656560871652
aF20552.344251766193
aF19819.44588564912
aF23271.350629105902
asS'k__Bacteria.p__Proteobacteria.c__Alphaproteobacteria.o__Rhizobiales.f__Bradyrhizobiaceae'
p129
(lp130
F32853.23175812411
aF23347.843292441612
aF27445.915402001872
aF29916.36285653021
aF35521.23552123548
aF27301.852625713913
aF35051.24016040404
aF31331.59268929504
aF22901.773894625327
aF21608.48996292033
aF26674.07613225896
aF43320.77658649668
aF28827.519379844933
aF20732.98429319365
aF29962.103268593124
aF30443.159922928673
aF17951.644702708374
aF20933.080948669474
asS'k__Bacteria.p__Proteobacteria.c__Alphaproteobacteria.o__Rhizobiales.f__Phyllobacteriaceae.g__Mesorhizobium'
p131
(lp132
F3213.9031067730048
aF2176.493866244562
aF3659.455386933597
aF2787.904782328973
aF1930.5019305019255
aF2228.722663323578
aF2673.399673251161
aF1616.3123212731534
aF1720.9425469949745
aF2429.3568597366148
aF1806.0572381217078
aF1159.0843233845262
aF1816.8604651162732
aF3350.785340314139
aF3671.2458550449983
aF1284.5215157353875
aF1660.2677181695562
aF2004.2311546598403
asS'k__Bacteria.p__Actinobacteria.c__Actinobacteria.o__Propionibacteriales'
p133
(lp134
F27139.626234972067
aF21072.417886822324
aF21741.470240017254
aF29273.000214454234
aF36164.73616473622
aF20337.09430282777
aF26585.474528442068
aF30212.607236105887
aF19459.8888006355
aF22759.237949111437
aF30841.900527924354
aF22891.915386844455
aF24709.302325581346
aF27643.97905759163
aF27356.702984367646
aF26075.78676942833
aF21998.547265746536
aF21712.504175481565
asS'k__Bacteria.p__Actinobacteria.c__Actinobacteria.o__Micromonosporales.f__Micromonosporaceae'
p135
(lp136
F44042.37590763006
aF16719.430154333146
aF37347.97115488107
aF32811.49474587176
aF59588.159588159615
aF38166.87560941639
aF45002.227833061064
aF53338.30660201411
aF43288.324066719666
aF60861.78238076983
aF57377.04918032785
aF43175.89104607363
aF47722.868217054296
aF49842.931937172725
aF38725.722406442386
aF45472.06165703273
aF35903.28940541662
aF45985.97038191737
asS'k__Bacteria.p__Proteobacteria.c__Betaproteobacteria.o__Burkholderiales.f__Comamonadaceae.g__Rhizobacter'
p137
(lp138
F58802.523509106024
aF103680.2532647408
aF60273.38284361209
aF59725.498606047586
aF41441.44144144149
aF102660.53767934263
aF55992.87093420468
aF66890.46375730445
aF77574.7948106963
aF66104.07876230663
aF52931.369824951355
aF63314.98116487975
aF70251.93798449605
aF86387.43455497379
aF73780.19895783988
aF74630.70006422605
aF116011.2068070977
aF78833.09208328693
asS'k__Bacteria.p__Bacteroidetes.c__Cytophagia.o__Cytophagales.f__Fulvivirgaceae'
p139
(lp140
F0.0
aF296.7946181242584
aF645.7862447529866
aF321.6813210379592
aF257.40025740025675
aF1810.8371639504192
aF1485.2220406950844
aF1989.3074723361892
aF2250.463330685725
aF1917.913310318373
aF2639.6221172547857
aF4636.337293538112
aF1937.9844961240249
aF837.6963350785335
aF2723.8275698720913
aF2569.0430314707783
aF1764.0344505551561
aF1002.1155773299188
asS'k__Bacteria.p__Proteobacteria.c__Betaproteobacteria.o__Nitrosomonadales'
p141
(lp142
F2142.602071182003
aF1286.1100118717854
aF753.4172855451509
aF857.8168561012221
aF2831.40283140283
aF1114.3613316617923
aF742.6110203475431
aF497.3268680840488
aF2647.6039184537995
aF1406.4697609001416
aF694.6373992775777
aF1159.0843233845262
aF1332.36434108527
aF1884.816753926698
aF1894.8365703458144
aF4238.921001926775
aF622.6003943135826
aF1670.192628883193
asS'k__Bacteria.p__Proteobacteria.c__Alphaproteobacteria.o__Rhizobiales.f__Hyphomicrobiaceae.g__Hyphomicrobium'
p143
(lp144
F2023.568622783003
aF2275.425405619315
aF861.0483263373151
aF2680.677675316315
aF2831.40283140283
aF2089.4274968658588
aF2079.3108569731266
aF2486.634340420236
aF1588.5623510722828
aF1534.3306482546952
aF972.4923589886082
aF3622.1385105766444
aF1574.6124031007703
aF523.5602094240837
aF1657.981999052584
aF1156.0693641618486
aF933.9005914703739
aF556.7308762943986
asS'k__Bacteria.p__Actinobacteria.c__Actinobacteria.o__Micromonosporales'
p145
(lp146
F44042.37590763006
aF16719.430154333146
aF37347.97115488107
aF32811.49474587176
aF59588.159588159615
aF38166.87560941639
aF45002.227833061064
aF53338.30660201411
aF43288.324066719666
aF60861.78238076983
aF57377.04918032785
aF43175.89104607363
aF47722.868217054296
aF49842.931937172725
aF38725.722406442386
aF45472.06165703273
aF35903.28940541662
aF45985.97038191737
asS'k__Bacteria.p__Bacteroidetes.c__Cytophagia.o__Cytophagales.f__Fulvivirgaceae.g__Chryseolinea'
p147
(lp148
F0.0
aF296.7946181242584
aF645.7862447529866
aF321.6813210379592
aF257.40025740025675
aF1810.8371639504192
aF1485.2220406950844
aF1989.3074723361892
aF2250.463330685725
aF1917.913310318373
aF2639.6221172547857
aF4636.337293538112
aF1937.9844961240249
aF837.6963350785335
aF2723.8275698720913
aF2569.0430314707783
aF1764.0344505551561
aF1002.1155773299188
asS'k__Bacteria.p__Firmicutes'
p149
(lp150
F7142.0069039400105
aF1879.6992481203035
aF25831.449790119408
aF2466.2234612910124
aF6949.806949806944
aF7243.348655801645
aF36833.50660923816
aF7459.903021260724
aF18400.847233253968
aF15854.75003196524
aF13475.965545985
aF31585.047812228262
aF3512.5968992248104
aF1256.5445026178002
aF1894.8365703458144
aF3982.0166987797033
aF1348.9675210127637
aF2783.654381471993
asS'k__Bacteria.p__Actinobacteria.c__Actinobacteria.o__Propionibacteriales.f__Kribbellaceae'
p151
(lp152
F5713.605523152009
aF3759.398496240607
aF4735.765794855239
aF7827.578811923657
aF15315.315315315303
aF6407.577657055295
aF10545.076488935103
aF9573.542210617925
aF7148.530579825265
aF7799.514128628057
aF9863.8510697416
aF10866.415531729934
aF8842.054263565895
aF14764.397905759219
aF11132.164850781624
aF8220.93770070648
aF11414.340562415682
aF8350.963144415995
asS'k__Bacteria.p__Proteobacteria.c__Alphaproteobacteria.o__Rhizobiales.f__Bradyrhizobiaceae.g__Bradyrhizobium'
p153
(lp154
F29758.36209975004
aF21962.80174119515
aF21956.732321601525
aF26914.003860175835
aF34491.634491634526
aF26605.376793425236
aF33863.06252784791
aF30834.265821211025
aF20651.31056393972
aF21097.046413502194
aF24868.018894137203
aF40133.294697189194
aF28100.77519379845
aF20523.56020942404
aF27238.275698720914
aF28002.569043031523
aF17640.344505551562
aF20376.350072375037
asS'k__Bacteria.p__Proteobacteria.c__Betaproteobacteria'
p155
(lp156
F438757.29079871514
aF509596.35931935156
aF400172.2096652674
aF358781.9000643369
aF306048.9060489063
aF456052.3749825882
aF297341.45254715596
aF307845.3313440264
aF353190.3627217376
aF322848.7405702604
aF235898.86079466462
aF288901.7676035939
aF340600.7751937976
aF326701.57068062795
aF346636.66508763685
aF338856.77585099515
aF409048.4590640238
aF330809.4866941317
asS'k__Bacteria.p__Proteobacteria.c__Betaproteobacteria.o__Burkholderiales.f__Comamonadaceae.g__Unassigned'
p157
(lp158
F122247.35150577323
aF135437.2774040364
aF104940.26477236037
aF102080.20587604548
aF89189.18918918924
aF112968.37999721413
aF72181.79117778111
aF85042.89444237221
aF76118.61265554685
aF77100.11507479867
aF67657.68268963601
aF66357.57751376419
aF90479.65116279066
aF81361.25654450263
aF88938.89152060638
aF92870.9055876685
aF81145.58472553693
aF74490.59124819057
asS'k__Bacteria.p__Actinobacteria.c__Actinobacteria.o__Pseudonocardiales.f__Pseudonocardiaceae.g__Pseudonocardia'
p159
(lp160
F1904.5351743840029
aF791.4523149980212
aF2367.8828974276125
aF1179.4981771391813
aF4247.104247104246
aF2646.608162696753
aF2079.3108569731266
aF2237.9709063782125
aF2382.8435266084166
aF2557.2177470911643
aF3473.1869963878808
aF2752.825268038246
aF3512.5968992248104
aF1047.1204188481674
aF4500.236854571291
aF2312.1387283236913
aF2179.101380097542
aF1224.8079278476787
asS'k__Bacteria'
p161
(lp162
F1000000.0
aF1000000.0
aF1000000.0
aF1000000.0
aF1000000.0
aF1000000.0
aF1000000.0
aF1000000.0
aF1000000.0
aF1000000.0
aF1000000.0
aF1000000.0
aF1000000.0
aF1000000.0
aF1000000.0
aF1000000.0
aF1000000.0
aF1000000.0
asS'k__Bacteria.p__Firmicutes.c__Bacilli.o__Bacillales'
p163
(lp164
F7142.0069039400105
aF1879.6992481203035
aF25831.449790119408
aF2466.2234612910124
aF6949.806949806944
aF7243.348655801645
aF36833.50660923816
aF7459.903021260724
aF18400.847233253968
aF15854.75003196524
aF13475.965545985
aF31585.047812228262
aF3512.5968992248104
aF1256.5445026178002
aF1894.8365703458144
aF3982.0166987797033
aF1348.9675210127637
aF2783.654381471993
asS'k__Bacteria.p__Bacteroidetes.c__Flavobacteriia'
p165
(lp166
F22259.254850613077
aF50455.085081123936
aF27338.284361209735
aF92322.53913789411
aF15958.815958816027
aF20615.68463574318
aF19456.408733105593
aF25363.670272286534
aF62748.21286735502
aF79529.47193453528
aF99194.22061683805
aF18545.34917415238
aF58502.90697674421
aF41465.96858638744
aF17053.52913311233
aF36865.76750160562
aF44930.99512296351
aF41198.08484578553
asS'k__Bacteria.p__Proteobacteria.c__Alphaproteobacteria.o__Caulobacterales.f__Unassigned.g__Unassigned'
p167
(lp168
F1428.4013807880021
aF494.6576968737627
aF861.0483263373151
aF1822.8608192150914
aF1287.0012870012868
aF1671.5419974926835
aF2376.3552651121354
aF1367.6488872311331
aF1853.322742917666
aF1917.913310318373
aF1667.1297582661891
aF2752.825268038246
aF2180.232558139528
aF314.1361256544497
aF1776.4092846991991
aF2183.6865767501554
aF1660.2677181695562
aF668.0770515532787
asS'k__Bacteria.p__Actinobacteria.c__Actinobacteria.o__Propionibacteriales.f__Nocardioidaceae.g__Aeromicrobium'
p169
(lp170
F2618.7358647780043
aF2374.3569449940674
aF3444.1933053492685
aF3216.813210379578
aF3989.703989703983
aF1950.1323304081386
aF2079.3108569731266
aF994.6537361680961
aF1853.322742917666
aF1917.913310318373
aF1250.3473186996387
aF1159.0843233845262
aF1695.7364341085217
aF1570.6806282722484
aF2605.400284225491
aF2183.6865767501554
aF1037.6673238559724
aF1336.1541031065588
asS'k__Bacteria.p__Actinobacteria.c__Actinobacteria.o__Streptomycetales.f__Streptomycetaceae.g__Streptomyces'
p171
(lp172
F22021.18795381496
aF14048.278591214927
aF28091.70164675497
aF42676.38859103581
aF39382.23938223942
aF43320.79676835207
aF40546.561710975766
aF40532.139748849884
aF65528.196981731526
aF112261.85909730218
aF43762.15615448743
aF31440.16227180521
aF40697.67441860464
aF53193.71727748697
aF75201.3263855992
aF44701.34874759149
aF41610.459686624396
aF48101.54771183614
asS'k__Bacteria.p__Actinobacteria.c__Actinobacteria.o__Micromonosporales.f__Micromonosporaceae.g__Catellatospora'
p173
(lp174
F833.2341387930012
aF494.6576968737627
aF1291.5724895059732
aF1072.271070126529
aF2059.202059202057
aF1392.9516645772394
aF1188.1776325560677
aF2113.639189357201
aF1323.8019592269013
aF1534.3306482546952
aF2639.6221172547857
aF2463.054187192125
aF3028.100775193804
aF942.4083769633504
aF1184.2728564661302
aF2055.23442517662
aF1037.6673238559724
aF2672.3082062131202
asS'k__Bacteria.p__Actinobacteria.c__Actinobacteria.o__Micromonosporales.f__Micromonosporaceae.g__Actinoplanes'
p175
(lp176
F37257.46934888701
aF13751.48397309056
aF31858.78807448072
aF27986.274930302417
aF48391.248391248315
aF29669.870455495195
aF35051.24016040404
aF44386.42297650136
aF34418.85093989949
aF48075.69364531386
aF38343.984440122316
aF32164.589973920643
aF38275.19379844961
aF41361.256544502634
aF30672.666982472787
aF33526.01156069366
aF27913.251011725577
aF34962.699031288335
asS'k__Bacteria.p__Actinobacteria.c__Actinobacteria.o__Pseudonocardiales.f__Pseudonocardiaceae.g__Kibdelosporangium'
p177
(lp178
F1190.3344839900017
aF18698.0609418282
aF47680.5510709288
aF750.5897490885695
aF4247.104247104246
aF3621.6743279008224
aF4752.710530224271
aF3729.9515106303543
aF8472.332539052166
aF3324.3830712185195
aF8196.72131147541
aF5650.536076499561
aF7994.186046511617
aF2722.5130890052396
aF5092.373282804351
aF5138.0860629415565
aF1556.5009857839564
aF12248.079278476787
asS'k__Bacteria.p__Proteobacteria.c__Betaproteobacteria.o__Burkholderiales.f__Oxalobacteraceae.g__Janthinobacterium'
p179
(lp180
F16902.749672657996
aF11278.195488721807
aF11301.259283177269
aF6433.626420759169
aF7207.207207207208
aF11840.089148906536
aF4752.710530224271
aF5719.2589829665585
aF2779.984114376491
aF5370.157268891457
aF2083.912197832728
aF2318.168646769056
aF5087.20930232558
aF5445.026178010466
aF6158.218853623875
aF4238.921001926775
aF5292.103351665455
aF5121.924061908481
asS'k__Bacteria.p__Proteobacteria.c__Alphaproteobacteria.o__Rhodospirillales.f__Reyranellaceae.g__Reyranella'
p181
(lp182
F2142.602071182003
aF296.7946181242584
aF1399.2035302981376
aF3002.3589963542754
aF2187.902187902189
aF1950.1323304081386
aF2673.399673251161
aF1243.3171702101213
aF1985.7029388403573
aF1917.913310318373
aF1250.3473186996387
aF3187.481889307454
aF1090.1162790697672
aF732.9842931937178
aF828.9909995262904
aF1926.782273603084
aF933.9005914703739
aF1336.1541031065588
asS'k__Bacteria.p__Actinobacteria.c__Actinobacteria.o__Streptosporangiales.f__Streptosporangiaceae'
p183
(lp184
F952.2675871920014
aF296.7946181242584
aF3121.300182972762
aF2895.1318893416314
aF5405.405405405398
aF696.475832288619
aF594.0888162780338
aF3854.283227651382
aF1853.322742917666
aF1662.1915356092597
aF3751.0419560989176
aF2897.7108084613155
aF2664.7286821705343
aF314.1361256544497
aF828.9909995262904
aF1541.4258188824656
aF3113.0019715679127
aF1224.8079278476787
asS'k__Bacteria.p__Actinobacteria.c__Actinobacteria.o__Micrococcales'
p185
(lp186
F5475.538626354008
aF4451.919271863877
aF7749.434937035837
aF7613.124597898354
aF13642.213642213643
aF6686.167989970751
aF7723.154611614439
aF8330.225040407808
aF8207.572147206782
aF7543.792353918942
aF9030.286190608507
aF9707.331208345413
aF10416.666666666664
aF5340.3141361256585
aF8289.909995262904
aF9377.007064868332
aF4565.736224966269
aF5901.3472887206335
asS'k__Bacteria.p__Chloroflexi.c__Chloroflexia'
p187
(lp188
F2975.8362099750043
aF6628.413138108425
aF4843.396835647403
aF2787.904782328973
aF4504.504504504509
aF4457.445326647172
aF8317.243427892474
aF12184.508268059188
aF7810.431559438708
aF1022.8870988364671
aF15282.022784106708
aF4491.451753115042
aF11022.286821705422
aF13717.277486910993
aF6395.073424917105
aF6807.964033397553
aF1660.2677181695562
aF33737.89110344064
asS'k__Bacteria.p__Proteobacteria.c__Betaproteobacteria.o__Nitrosomonadales.f__Methylophilaceae'
p189
(lp190
F2142.602071182003
aF1286.1100118717854
aF753.4172855451509
aF857.8168561012221
aF2831.40283140283
aF1114.3613316617923
aF742.6110203475431
aF497.3268680840488
aF2647.6039184537995
aF1406.4697609001416
aF694.6373992775777
aF1159.0843233845262
aF1332.36434108527
aF1884.816753926698
aF1894.8365703458144
aF4238.921001926775
aF622.6003943135826
aF1670.192628883193
asS'k__Bacteria.p__Chloroflexi.c__Chloroflexia.o__Herpetosiphonales.f__Herpetosiphonaceae'
p191
(lp192
F2975.8362099750043
aF6628.413138108425
aF4843.396835647403
aF2787.904782328973
aF4504.504504504509
aF4457.445326647172
aF8317.243427892474
aF12184.508268059188
aF7810.431559438708
aF1022.8870988364671
aF15282.022784106708
aF4491.451753115042
aF11022.286821705422
aF13717.277486910993
aF6395.073424917105
aF6807.964033397553
aF1660.2677181695562
aF33737.89110344064
asS'k__Bacteria.p__Proteobacteria.c__Deltaproteobacteria'
p193
(lp194
F7022.9734555410105
aF8409.180846853975
aF7749.434937035837
aF8149.260132961616
aF6821.106821106813
aF7104.053489343924
aF4455.666122085262
aF6216.585851050607
aF4765.687053216849
aF4347.270170054988
aF4167.824395665456
aF5505.650536076492
aF4844.961240310077
aF8481.675392670155
aF6039.791567977259
aF6037.251123956323
aF6848.604337449412
aF5344.6164124262405
asS'k__Bacteria.p__Proteobacteria.c__Alphaproteobacteria.o__Rhizobiales.f__Rhizobiaceae.g__Pararhizobium'
p195
(lp196
F28568.027615760042
aF36802.53264740794
aF28414.594769131378
aF24769.461719922812
aF16602.3166023166
aF15043.877977434186
aF15297.787019159374
aF17282.10866592069
aF14032.300767805147
aF10484.592763073784
aF9169.213670464023
aF10141.987829614603
aF11264.534883720924
aF19790.575916230388
aF11132.164850781624
aF10661.528580603721
aF20857.11320950498
aF15365.772185725398
asS'k__Bacteria.p__Proteobacteria.c__Betaproteobacteria.o__Burkholderiales.f__Comamonadaceae.g__Hydrogenophaga'
p197
(lp198
F1309.3679323890021
aF10585.674713098539
aF2152.620815843284
aF1072.271070126529
aF643.5006435006434
aF2646.608162696753
aF2673.399673251161
aF3729.9515106303543
aF5824.7286205983655
aF895.026211481909
aF3195.3320366768603
aF869.3132425383947
aF2785.8527131783007
aF1465.968586387441
aF2368.5457129322604
aF1541.4258188824656
aF103.76673238559711
aF1558.8464536243202
asS'k__Bacteria.p__Proteobacteria.c__Alphaproteobacteria.o__Sphingomonadales'
p199
(lp200
F19283.418640638
aF31262.366442421837
aF26261.973953288092
aF32811.49474587176
aF13127.41312741313
aF14347.40214514557
aF13366.99836625577
aF14919.806042521448
aF12178.978024887481
aF8694.54034010996
aF11947.76326757433
aF11590.843233845262
aF11143.410852713174
aF15706.806282722484
aF15632.401705352855
aF11046.885035324327
aF13800.97540728438
aF9019.040195969274
asS'k__Bacteria.p__Proteobacteria.c__Gammaproteobacteria.o__Unassigned'
p201
(lp202
F14164.980359481022
aF11673.921646220819
aF13884.40426218921
aF16191.293158910577
aF18404.11840411848
aF20894.274968658585
aF24357.641467399335
aF20887.728459530077
aF18400.847233253968
aF22247.79439969315
aF17088.080022228463
aF28977.108084613155
aF23740.310077519425
aF16020.942408376906
aF22145.902415916695
aF24149.00449582529
aF18262.94489986505
aF17370.003340385196
asS'k__Bacteria.p__Firmicutes.c__Bacilli'
p203
(lp204
F7142.0069039400105
aF1879.6992481203035
aF25831.449790119408
aF2466.2234612910124
aF6949.806949806944
aF7243.348655801645
aF36833.50660923816
aF7459.903021260724
aF18400.847233253968
aF15854.75003196524
aF13475.965545985
aF31585.047812228262
aF3512.5968992248104
aF1256.5445026178002
aF1894.8365703458144
aF3982.0166987797033
aF1348.9675210127637
aF2783.654381471993
asS'k__Bacteria.p__Bacteroidetes.c__Flavobacteriia.o__Flavobacteriales'
p205
(lp206
F22259.254850613077
aF50455.085081123936
aF27338.284361209735
aF92322.53913789411
aF15958.815958816027
aF20615.68463574318
aF19456.408733105593
aF25363.670272286534
aF62748.21286735502
aF79529.47193453528
aF99194.22061683805
aF18545.34917415238
aF58502.90697674421
aF41465.96858638744
aF17053.52913311233
aF36865.76750160562
aF44930.99512296351
aF41198.08484578553
asS'k__Bacteria.p__Proteobacteria.c__Gammaproteobacteria.o__Pseudomonadales.f__Pseudomonadaceae.g__Pseudomonas'
p207
(lp208
F2975.8362099750043
aF8903.838543727741
aF2690.776019804105
aF2251.76924726571
aF2059.202059202057
aF3343.083994985367
aF21090.152977870173
aF13303.493721248296
aF24755.096637543007
aF4091.5483953458593
aF22784.10669630451
aF10866.415531729934
aF6056.201550387593
aF9005.235602094246
aF2486.972998578876
aF5394.990366088628
aF1556.5009857839564
aF1558.8464536243202
asS'k__Bacteria.p__Proteobacteria.c__Betaproteobacteria.o__Burkholderiales.f__Comamonadaceae.g__Aquincola'
p209
(lp210
F77490.7749077491
aF108725.76177285326
aF86858.24991927674
aF95968.26077632433
aF54440.15444015436
aF97088.73102103366
aF37130.551017377074
aF44759.418127564415
aF59703.46836113326
aF55235.903337169126
aF24173.381494859692
aF37960.01159084324
aF54384.68992248063
aF54659.68586387428
aF47015.6324017053
aF35195.88953114956
aF60080.9380512607
aF50439.81739227257
asS'k__Bacteria.p__Actinobacteria.c__Actinobacteria.o__Streptomycetales.f__Streptomycetaceae'
p211
(lp212
F22021.18795381496
aF14048.278591214927
aF28091.70164675497
aF42676.38859103581
aF39382.23938223942
aF43320.79676835207
aF40546.561710975766
aF40532.139748849884
aF65528.196981731526
aF112261.85909730218
aF43762.15615448743
aF31440.16227180521
aF40697.67441860464
aF53193.71727748697
aF75201.3263855992
aF44701.34874759149
aF41610.459686624396
aF48101.54771183614
asS'k__Bacteria.p__Proteobacteria.c__Alphaproteobacteria.o__Rhodospirillales.f__Reyranellaceae'
p213
(lp214
F2142.602071182003
aF296.7946181242584
aF1399.2035302981376
aF3002.3589963542754
aF2187.902187902189
aF1950.1323304081386
aF2673.399673251161
aF1243.3171702101213
aF1985.7029388403573
aF1917.913310318373
aF1250.3473186996387
aF3187.481889307454
aF1090.1162790697672
aF732.9842931937178
aF828.9909995262904
aF1926.782273603084
aF933.9005914703739
aF1336.1541031065588
asS'k__Bacteria.p__Actinobacteria.c__Actinobacteria.o__Pseudonocardiales.f__Pseudonocardiaceae.g__Lentzea'
p215
(lp216
F35710.03451970005
aF27008.31024930749
aF29168.012054676616
aF38816.21273858036
aF79536.67953667944
aF39002.64660816278
aF41140.65052725392
aF48613.70135521573
aF37463.59544612124
aF28257.25610535746
aF35843.289802723055
aF38829.32483338155
aF37427.32558139526
aF35183.24607329845
aF49976.314542870685
aF54849.0687219011
aF39535.12503891254
aF49549.0479902015
asS'k__Bacteria.p__Proteobacteria.c__Alphaproteobacteria.o__Rhizobiales.f__Rhizobiaceae.g__Unassigned'
p217
(lp218
F16664.682775860023
aF25326.474079936666
aF17220.966526746273
aF27235.68518121375
aF10810.810810810812
aF15322.468310349639
aF20644.58636566173
aF23996.021385055294
aF19592.268996558192
aF12913.949622810385
aF21811.6143373159
aF19559.547957113915
aF17684.108527131848
aF23455.49738219892
aF16579.819990525837
aF13359.023763648036
aF14423.575801598008
aF11245.96370114686
asS'k__Bacteria.p__Actinobacteria.c__Actinobacteria.o__Streptosporangiales.f__Thermomonosporaceae'
p219
(lp220
F55112.48660873704
aF42540.56193114371
aF66300.72112797326
aF32704.267638859066
aF100257.4002574002
aF66165.20406741883
aF64310.11436209712
aF73480.04475941809
aF59835.84855705595
aF69172.74005881605
aF97388.16337871629
aF78817.73399014786
aF73280.03875968984
aF73926.70157068063
aF93557.55566082426
aF82466.28131021193
aF103247.89872366918
aF104888.09709386487
asS'k__Bacteria.p__Proteobacteria.c__Betaproteobacteria.o__Burkholderiales.f__Comamonadaceae'
p221
(lp222
F328175.217236044
aF420755.83696082316
aF307501.88354321365
aF309457.4308385166
aF240540.5405405401
aF379440.03343084006
aF228278.62765483433
aF255750.34191222253
aF285544.08260524203
aF254315.3049482159
aF190052.792442345
aF224717.47319617448
aF274951.5503875969
aF272356.02094240865
aF281264.80341070524
aF272447.0134874762
aF315762.1666493725
aF256096.20309542332
asS'k__Bacteria.p__Proteobacteria.c__Alphaproteobacteria.o__Sphingomonadales.f__Sphingomonadaceae.g__Unassigned'
p223
(lp224
F7499.107249137011
aF13355.757815591616
aF6027.338284361209
aF12116.663092429773
aF4375.804375804378
aF4039.559827273997
aF4604.188326154766
aF8205.893323386796
aF6486.629600211807
aF1790.052422963824
aF6529.591553209221
aF4201.680672268903
aF4966.085271317828
aF9005.235602094233
aF4855.518711511136
aF3468.2080924855445
aF2386.6348448687418
aF3897.1161340607932
asS'k__Bacteria.p__Actinobacteria.c__Actinobacteria.o__Streptosporangiales.f__Thermomonosporaceae.g__Actinocorallia'
p225
(lp226
F8927.508629925012
aF4550.85081123863
aF18620.170057044466
aF2895.1318893416314
aF14543.114543114547
aF14904.582810976464
aF10396.554284865599
aF11811.513116996153
aF11781.837437119422
aF5625.879043600569
aF14865.24034454015
aF8838.017965807016
aF10295.542635658912
aF17172.774869109926
aF13619.137849360486
aF10019.267822736027
aF15461.243125454006
aF15477.118360984372
asS'k__Bacteria.p__Proteobacteria.c__Betaproteobacteria.o__Burkholderiales.f__Oxalobacteraceae.g__Massilia'
p227
(lp228
F15117.247946673067
aF5738.02928373565
aF11085.997201592942
aF4503.53849453142
aF11711.711711711716
aF6546.872823513031
aF29110.351997623708
aF6465.249285092629
aF2647.6039184537995
aF6265.183480373361
aF2778.549597110304
aF4346.566212691973
aF3875.9689922480648
aF7853.403141361256
aF3552.8185693983833
aF5138.0860629415565
aF4254.436027809484
aF3563.0776082841603
asS'k__Bacteria.p__Proteobacteria.c__Alphaproteobacteria.o__Caulobacterales.f__Caulobacteraceae'
p229
(lp230
F11189.144149506015
aF10091.017016224772
aF7103.648692282851
aF10615.48359425263
aF8751.608751608755
aF9750.661652040679
aF7129.065795336405
aF8081.5616063657835
aF4898.067249139525
aF3196.522183863955
aF5140.31675465407
aF6664.734859461029
aF7873.062015503867
aF5863.874345549736
aF5802.936996684028
aF4881.18175979447
aF6848.604337449412
aF6346.731989756154
asS'k__Bacteria.p__Proteobacteria.c__Alphaproteobacteria.o__Rhizobiales.f__Devosiaceae'
p231
(lp232
F17259.85001785495
aF27008.31024930749
aF14853.083629318717
aF17263.564229037158
aF10682.110682110679
aF14765.287644518745
aF9505.421060448542
aF12184.508268059188
aF10590.415673815198
aF5753.739930955119
aF17504.862461794874
aF10576.644450883796
aF13081.395348837199
aF9633.507853403133
aF7934.6281383230735
aF10533.076429030187
aF7263.671266991798
aF6235.385814497266
asS'k__Bacteria.p__Proteobacteria.c__Alphaproteobacteria.o__Sphingomonadales.f__Erythrobacteraceae.g__Unassigned'
p233
(lp234
F2261.6355195810033
aF3264.740799366843
aF2152.620815843284
aF1286.7252841518339
aF1673.1016731016782
aF1950.1323304081386
aF891.1332244170507
aF1367.6488872311331
aF1588.5623510722828
aF895.026211481909
aF1806.0572381217078
aF1883.5120254998483
aF847.8682170542639
aF2198.9528795811475
aF1776.4092846991991
aF2569.0430314707783
aF1764.0344505551561
aF668.0770515532787
asS'k__Bacteria.p__Proteobacteria.c__Deltaproteobacteria.o__Unassigned.f__Unassigned.g__Unassigned'
p235
(lp236
F7022.9734555410105
aF8409.180846853975
aF7749.434937035837
aF8149.260132961616
aF6821.106821106813
aF7104.053489343924
aF4455.666122085262
aF6216.585851050607
aF4765.687053216849
aF4347.270170054988
aF4167.824395665456
aF5505.650536076492
aF4844.961240310077
aF8481.675392670155
aF6039.791567977259
aF6037.251123956323
aF6848.604337449412
aF5344.6164124262405
asS'k__Bacteria.p__Actinobacteria.c__Actinobacteria.o__Pseudonocardiales.f__Pseudonocardiaceae.g__Actinocrispum'
p237
(lp238
F6427.8062135460095
aF2671.151563118326
aF22817.780647938896
aF48037.743941668436
aF19176.319176319234
aF16018.944142638318
aF15891.875835437408
aF19520.07957229884
aF16944.66507810436
aF18923.41132847466
aF23756.599055293125
aF28977.108084613155
aF44815.89147286822
aF9842.931937172776
aF18593.08384651824
aF21708.413615927984
aF9442.77264708934
aF25609.620309542333
asS'k__Bacteria.p__Actinobacteria.c__Actinobacteria.o__Unassigned'
p239
(lp240
F11189.144149506015
aF4451.919271863877
aF15929.39403724036
aF12331.117306455077
aF22007.722007722063
aF12954.450480568326
aF14406.653794742315
aF16909.113514857636
aF17341.805665872434
aF18539.828666410907
aF14865.24034454015
aF17820.92147203712
aF18895.348837209363
aF19790.575916230388
aF18474.656560871652
aF20552.344251766193
aF19819.44588564912
aF23271.350629105902
asS'k__Bacteria.p__Proteobacteria.c__Betaproteobacteria.o__Burkholderiales.f__Oxalobacteraceae'
p241
(lp242
F108439.47149148915
aF87554.4123466561
aF91916.9088365084
aF48466.65236971904
aF62676.96267696265
aF75497.9802200864
aF68320.21387197396
aF51597.662563719976
aF64998.67619804077
aF67126.96586114306
aF45151.43095304245
aF63025.21008403364
aF64316.860465116195
aF52460.73298429318
aF63477.02510658455
aF62170.8413615927
aF92663.6920203382
aF73043.0909698252
asS'k__Bacteria.p__Bacteroidetes'
p243
(lp244
F22854.422092608005
aF51048.6743173724
aF28629.85685071579
aF93394.81020802056
aF17117.117117117163
aF23819.47346427084
aF23020.941630773832
aF30088.27551908492
aF69234.8424675669
aF86561.820739036
aF104473.46485134767
aF27962.909301651616
aF61531.00775193801
aF44293.193717277514
aF23567.029843676017
aF43031.47077713543
aF50845.698868942556
aF45540.58568088191
asS'k__Bacteria.p__Proteobacteria.c__Alphaproteobacteria.o__Caulobacterales.f__Caulobacteraceae.g__Phenylobacterium'
p245
(lp246
F11189.144149506015
aF10091.017016224772
aF7103.648692282851
aF10615.48359425263
aF8751.608751608755
aF9750.661652040679
aF7129.065795336405
aF8081.5616063657835
aF4898.067249139525
aF3196.522183863955
aF5140.31675465407
aF6664.734859461029
aF7873.062015503867
aF5863.874345549736
aF5802.936996684028
aF4881.18175979447
aF6848.604337449412
aF6346.731989756154
asS'k__Bacteria.p__Proteobacteria.c__Betaproteobacteria.o__Burkholderiales.f__Comamonadaceae.g__Piscinibacter'
p247
(lp248
F30115.462444947
aF33240.997229916895
aF28091.70164675497
aF26270.6412181
aF30115.830115830177
aF26048.196127594416
aF23466.508242982276
aF26979.982593559547
aF28461.742123378368
aF26083.621020329927
aF18060.572381217076
aF21587.945523036815
aF28343.023255813892
aF22722.513089005268
aF36830.885836096575
aF32113.03789338473
aF32271.453771920686
aF25386.927959024673
asS'k__Bacteria.p__Proteobacteria.c__Gammaproteobacteria.o__Xanthomonadales.f__Xanthomonadaceae.g__Xanthomonas'
p249
(lp250
F14998.214498274083
aF2967.9461812425843
aF3336.56226455709
aF1822.8608192150914
aF1930.5019305019255
aF4039.559827273997
aF4752.710530224271
aF2983.9612085042836
aF2647.6039184537995
aF3452.243958573068
aF972.4923589886082
aF2897.7108084613155
aF3512.5968992248104
aF1780.104712041891
aF2250.1184272856453
aF3982.0166987797033
aF1971.5679153263422
aF2115.577329918713
asS'k__Bacteria.p__Actinobacteria.c__Actinobacteria.o__Unassigned.f__Unassigned'
p251
(lp252
F11189.144149506015
aF4451.919271863877
aF15929.39403724036
aF12331.117306455077
aF22007.722007722063
aF12954.450480568326
aF14406.653794742315
aF16909.113514857636
aF17341.805665872434
aF18539.828666410907
aF14865.24034454015
aF17820.92147203712
aF18895.348837209363
aF19790.575916230388
aF18474.656560871652
aF20552.344251766193
aF19819.44588564912
aF23271.350629105902
asS'k__Bacteria.p__Proteobacteria.c__Betaproteobacteria.o__Burkholderiales.f__Comamonadaceae.g__Ideonella'
p253
(lp254
F18331.151053445967
aF10684.606252473292
aF12377.569691098912
aF10829.937808277933
aF11068.211068211058
aF19501.32330408139
aF17674.14228427148
aF13552.157155290319
aF22637.013502779944
aF15087.584707837885
aF12781.328146707425
aF19559.547957113915
aF15019.379844961239
aF9633.507853403147
aF11132.16485078161
aF18625.561978163158
aF15149.942928297192
aF13806.925732101108
asS'k__Bacteria.p__Actinobacteria.c__Actinobacteria.o__Propionibacteriales.f__Nocardioidaceae.g__Nocardioides'
p255
(lp256
F18807.284847042058
aF14938.66244558762
aF13561.51113981272
aF18228.60819215091
aF16859.716859716806
aF11979.384315364256
aF13961.087182533802
aF19644.41128931996
aF10458.035477892508
aF13041.810510164949
aF19727.7021394832
aF10866.415531729934
aF14171.511627906977
aF11308.900523560202
aF13619.137849360486
aF15671.162491971727
aF9546.53937947494
aF12025.386927959027
asS'k__Bacteria.p__Unassigned.c__Unassigned.o__Unassigned'
p257
(lp258
F18093.084156647998
aF13355.757815591616
aF10870.735120008612
aF16727.428693973867
aF26512.22651222643
aF22705.11213260905
aF91044.11109460873
aF80566.95262961592
aF33492.18956844065
aF49226.44163150497
aF72242.28952486799
aF89394.37844103151
aF27374.03100775197
aF67225.1308900524
aF46897.205116058714
aF55619.78163134235
aF51572.06599564174
aF64580.78165015026
asS'k__Bacteria.p__Actinobacteria.c__Actinobacteria.o__Propionibacteriales.f__Nocardioidaceae'
p259
(lp260
F21426.02071182003
aF17313.019390581743
aF17005.704445162002
aF21445.42140253052
aF20849.42084942077
aF13929.516645772395
aF16040.398039506912
aF20639.06502548799
aF12311.358220810172
aF14959.723820483321
aF20978.049458182915
aF12025.499855114453
aF15867.248062015424
aF12879.581151832464
aF16224.538133585933
aF17854.849068721913
aF10584.20670333091
aF13361.541031065588
asS'k__Bacteria.p__Proteobacteria.c__Gammaproteobacteria'
p261
(lp262
F43328.175217236
aF35417.49109616148
aF32719.83640081795
aF31631.99656873263
aF32303.732303732268
aF41788.54993731717
aF67577.60285162629
aF57814.24841477057
aF58114.906010060964
aF39509.01419255857
aF55570.99194220625
aF54621.84873949577
aF53173.449612403114
aF41675.39267015705
aF47489.34154429179
aF47398.84393063577
aF36007.056137802174
aF29618.08261886207
asS'k__Bacteria.p__Proteobacteria.c__Gammaproteobacteria.o__Xanthomonadales.f__Xanthomonadaceae'
p263
(lp264
F23211.52243780496
aF13949.347051840094
aF14207.297384565758
aF11794.981771391815
aF8494.208494208491
aF14625.992478061009
aF19159.36432496652
aF20017.406440383013
aF11119.936457505964
aF11379.618974555688
aF12781.328146707425
aF9272.674587076206
aF19137.596899224805
aF13926.701570680621
aF19422.074846044485
aF14515.093127809874
aF12555.774618657251
aF9464.424897004796
asS'k__Bacteria.p__Bacteroidetes.c__Cytophagia.o__Cytophagales'
p265
(lp266
F0.0
aF296.7946181242584
aF645.7862447529866
aF321.6813210379592
aF257.40025740025675
aF1810.8371639504192
aF1485.2220406950844
aF1989.3074723361892
aF2250.463330685725
aF1917.913310318373
aF2639.6221172547857
aF4636.337293538112
aF1937.9844961240249
aF837.6963350785335
aF2723.8275698720913
aF2569.0430314707783
aF1764.0344505551561
aF1002.1155773299188
asS'k__Bacteria.p__Proteobacteria.c__Deltaproteobacteria.o__Unassigned'
p267
(lp268
F7022.9734555410105
aF8409.180846853975
aF7749.434937035837
aF8149.260132961616
aF6821.106821106813
aF7104.053489343924
aF4455.666122085262
aF6216.585851050607
aF4765.687053216849
aF4347.270170054988
aF4167.824395665456
aF5505.650536076492
aF4844.961240310077
aF8481.675392670155
aF6039.791567977259
aF6037.251123956323
aF6848.604337449412
aF5344.6164124262405
asS'k__Bacteria.p__Proteobacteria.c__Betaproteobacteria.o__Burkholderiales.f__Comamonadaceae.g__Polaromonas'
p269
(lp270
F3451.9700035710052
aF3561.5354174911017
aF2583.144979011941
aF3645.721638430197
aF2316.60231660232
aF3203.7888285276476
aF4604.188326154766
aF2486.634340420236
aF2647.6039184537995
aF2301.4959723820507
aF1111.4198388441234
aF1303.969863807592
aF1211.2403100775186
aF2513.0890052355976
aF2605.400284225491
aF2569.0430314707783
aF2282.868112483142
aF2449.61585569536
asS'k__Bacteria.p__Proteobacteria.c__Gammaproteobacteria.o__Pseudomonadales.f__Pseudomonadaceae'
p271
(lp272
F2975.8362099750043
aF8903.838543727741
aF2690.776019804105
aF2251.76924726571
aF2059.202059202057
aF3343.083994985367
aF21090.152977870173
aF13303.493721248296
aF24755.096637543007
aF4091.5483953458593
aF22784.10669630451
aF10866.415531729934
aF6056.201550387593
aF9005.235602094246
aF2486.972998578876
aF5394.990366088628
aF1556.5009857839564
aF1558.8464536243202
asS'k__Bacteria.p__Actinobacteria.c__Actinobacteria.o__Micrococcales.f__Microbacteriaceae'
p273
(lp274
F5475.538626354008
aF4451.919271863877
aF7749.434937035837
aF7613.124597898354
aF13642.213642213643
aF6686.167989970751
aF7723.154611614439
aF8330.225040407808
aF8207.572147206782
aF7543.792353918942
aF9030.286190608507
aF9707.331208345413
aF10416.666666666664
aF5340.3141361256585
aF8289.909995262904
aF9377.007064868332
aF4565.736224966269
aF5901.3472887206335
asS'k__Bacteria.p__Actinobacteria.c__Actinobacteria.o__Streptosporangiales.f__Streptosporangiaceae.g__Nonomuraea'
p275
(lp276
F952.2675871920014
aF296.7946181242584
aF3121.300182972762
aF2895.1318893416314
aF5405.405405405398
aF696.475832288619
aF594.0888162780338
aF3854.283227651382
aF1853.322742917666
aF1662.1915356092597
aF3751.0419560989176
aF2897.7108084613155
aF2664.7286821705343
aF314.1361256544497
aF828.9909995262904
aF1541.4258188824656
aF3113.0019715679127
aF1224.8079278476787
asS'k__Bacteria.p__Proteobacteria.c__Betaproteobacteria.o__Burkholderiales.f__Oxalobacteraceae.g__Noviherbaspirillum'
p277
(lp278
F22497.321747411046
aF39275.821131776764
aF19481.218383381693
aF17263.564229037158
aF25096.525096525096
aF22008.636300320377
aF13664.042774394777
aF22752.704214845176
aF33359.80937251796
aF17133.358905510882
aF31953.3203667686
aF45204.28861199653
aF33914.728682170586
aF17172.774869109926
aF27593.557555660816
aF34938.98522800258
aF27290.650617412088
aF28615.96704153217
asS'k__Bacteria.p__Proteobacteria.c__Alphaproteobacteria.o__Rhodospirillales.f__Rhodospirillaceae.g__Dongia'
p279
(lp280
F1428.4013807880021
aF1385.0415512465395
aF2260.2518566354483
aF1393.9523911644865
aF5019.3050193050185
aF3760.9694943585423
aF7426.110203475431
aF5221.932114882512
aF5030.447445062216
aF4986.574606827779
aF6390.664073353704
aF9562.445667922344
aF3270.348837209307
aF2094.2408376963403
aF4026.5277119848442
aF4881.18175979447
aF2801.701774411127
aF5010.577886649594
asS'k__Bacteria.p__Proteobacteria.c__Betaproteobacteria.o__Nitrosomonadales.f__Methylophilaceae.g__Unassigned'
p281
(lp282
F2142.602071182003
aF1286.1100118717854
aF753.4172855451509
aF857.8168561012221
aF2831.40283140283
aF1114.3613316617923
aF742.6110203475431
aF497.3268680840488
aF2647.6039184537995
aF1406.4697609001416
aF694.6373992775777
aF1159.0843233845262
aF1332.36434108527
aF1884.816753926698
aF1894.8365703458144
aF4238.921001926775
aF622.6003943135826
aF1670.192628883193
asS'k__Bacteria.p__Proteobacteria.c__Alphaproteobacteria.o__Sphingomonadales.f__Sphingomonadaceae'
p283
(lp284
F17021.78312105698
aF27997.62564305502
aF24109.35313744481
aF31524.769461719945
aF11454.311454311453
aF12397.269814737432
aF12475.865141838709
aF13552.157155290319
aF10590.415673815198
aF7799.514128628057
aF10141.70602945262
aF9707.331208345413
aF10295.542635658912
aF13507.853403141364
aF13855.992420653716
aF8477.842003853566
aF12036.940956729266
aF8350.963144415995
asS'k__Bacteria.p__Proteobacteria.c__Alphaproteobacteria.o__Rhizobiales.f__Rhizobiaceae'
p285
(lp286
F51898.58350196413
aF69944.59833795014
aF51555.26853944683
aF59189.3630709843
aF30888.030888030935
aF34127.31578214235
aF40398.03950690623
aF44510.75469352232
aF36536.9340746624
aF26211.48190768446
aF34176.16004445677
aF32744.132135612854
aF33672.480620154995
aF47225.130890052395
aF31501.657981999037
aF25818.88246628135
aF39742.658503683655
aF28950.005567308803
asS'k__Bacteria.p__Actinobacteria.c__Actinobacteria'
p287
(lp288
F230686.82299726264
aF165809.25999208484
aF297276.9346679586
aF269676.1741368225
aF422007.72200772126
aF263825.0452709285
aF270904.5002227833
aF314186.24891209794
aF296266.8784749802
aF350466.6922388449
aF340233.398166157
aF290785.27962909243
aF323158.9147286815
aF344397.90575916186
aF366177.1672193272
aF323699.4219653171
aF301234.8241153888
aF355639.68377686245
asS'k__Bacteria.p__Proteobacteria.c__Alphaproteobacteria'
p289
(lp290
F169860.7308653727
aF189157.1032845278
aF170487.56861478856
aF189791.97941239577
aF138481.3384813385
aF136509.2631285694
aF151195.60374275965
aF147208.75295287828
aF118877.4159385756
aF97813.5788262371
aF129480.41122534036
aF155896.84149521877
aF128512.59689922482
aF123874.34554973814
aF118900.99478919937
aF122800.25690430307
aF110407.80325827534
aF95869.0568978955
asS'k__Bacteria.p__Proteobacteria.c__Alphaproteobacteria.o__Caulobacterales'
p291
(lp292
F12617.545530294019
aF10585.674713098539
aF7964.697018620166
aF12438.344413467734
aF10038.610038610037
aF11422.203649533361
aF9505.421060448542
aF9449.210493596915
aF6751.38999205719
aF5114.4354941823285
aF6807.446512920259
aF9417.560127499277
aF10053.294573643409
aF6178.010471204187
aF7579.3462813832275
aF7064.868336544625
aF8508.872055618967
aF7014.809041309433
asS'k__Bacteria.p__Proteobacteria.c__Alphaproteobacteria.o__Rhizobiales.f__Rhizobiaceae.g__Ensifer'
p293
(lp294
F6665.87311034401
aF7815.591610605459
aF5919.707243569045
aF7184.216169847735
aF3474.903474903472
aF3760.9694943585423
aF4455.666122085262
aF3232.624642546307
aF2912.3643102991828
aF2812.9395218002774
aF3195.3320366768603
aF3042.596348884385
aF4723.837209302325
aF3979.0575916230387
aF3789.6731406916138
aF1798.330122029548
aF4461.969492580683
aF2338.269680436473
asS'k__Bacteria.p__Bacteroidetes.c__Chitinophagia.o__Chitinophagales.f__Chitinophagaceae'
p295
(lp296
F595.1672419950008
aF296.7946181242584
aF645.7862447529866
aF750.5897490885695
aF900.9009009009002
aF1392.9516645772394
aF2079.3108569731266
aF2735.29777446226
aF4236.166269526083
aF5114.4354941823285
aF2639.6221172547857
aF4781.222833961163
aF1090.1162790697672
aF1989.5287958115193
aF3789.6731406916138
aF3596.6602440590805
aF4150.669295423884
aF3340.3852577664006
asS'k__Bacteria.p__Proteobacteria.c__Alphaproteobacteria.o__Rhizobiales.f__Bradyrhizobiaceae.g__Pseudorhodoplanes'
p297
(lp298
F3094.8696583740048
aF1385.0415512465395
aF5489.1830804003885
aF3002.3589963542754
aF1029.6010296010302
aF696.475832288619
aF1188.1776325560677
aF497.3268680840488
aF2250.463330685725
aF511.4435494182328
aF1806.0572381217078
aF3187.481889307454
aF726.7441860465109
aF209.42408376963402
aF2723.8275698720913
aF2440.5908798972428
aF311.3001971567913
aF556.7308762943986
asS'k__Bacteria.p__Chloroflexi'
p299
(lp300
F2975.8362099750043
aF6628.413138108425
aF4843.396835647403
aF2787.904782328973
aF4504.504504504509
aF4457.445326647172
aF8317.243427892474
aF12184.508268059188
aF7810.431559438708
aF1022.8870988364671
aF15282.022784106708
aF4491.451753115042
aF11022.286821705422
aF13717.277486910993
aF6395.073424917105
aF6807.964033397553
aF1660.2677181695562
aF33737.89110344064
asS'k__Bacteria.p__Chloroflexi.c__Chloroflexia.o__Herpetosiphonales.f__Herpetosiphonaceae.g__Herpetosiphon'
p301
(lp302
F2975.8362099750043
aF6628.413138108425
aF4843.396835647403
aF2787.904782328973
aF4504.504504504509
aF4457.445326647172
aF8317.243427892474
aF12184.508268059188
aF7810.431559438708
aF1022.8870988364671
aF15282.022784106708
aF4491.451753115042
aF11022.286821705422
aF13717.277486910993
aF6395.073424917105
aF6807.964033397553
aF1660.2677181695562
aF33737.89110344064
asS'k__Bacteria.p__Bacteroidetes.c__Chitinophagia.o__Chitinophagales.f__Chitinophagaceae.g__Niastella'
p303
(lp304
F595.1672419950008
aF296.7946181242584
aF645.7862447529866
aF750.5897490885695
aF900.9009009009002
aF1392.9516645772394
aF2079.3108569731266
aF2735.29777446226
aF4236.166269526083
aF5114.4354941823285
aF2639.6221172547857
aF4781.222833961163
aF1090.1162790697672
aF1989.5287958115193
aF3789.6731406916138
aF3596.6602440590805
aF4150.669295423884
aF3340.3852577664006
asS'k__Bacteria.p__Proteobacteria.c__Gammaproteobacteria.o__Nevskiales.f__Nevskiaceae'
p305
(lp306
F2975.8362099750043
aF890.3838543727741
aF1937.3587342589558
aF1393.9523911644865
aF3346.2033462033405
aF2925.1984956122083
aF2970.444081390169
aF3605.6197936093427
aF3839.0256817580075
aF1790.052422963824
aF2917.477076965823
aF5505.650536076492
aF4239.34108527132
aF2722.5130890052396
aF3434.391283751783
aF3339.755940912009
aF3631.835633495899
aF1224.8079278476787
asS'k__Bacteria.p__Proteobacteria.c__Gammaproteobacteria.o__Unassigned.f__Unassigned'
p307
(lp308
F14164.980359481022
aF11673.921646220819
aF13884.40426218921
aF16191.293158910577
aF18404.11840411848
aF20894.274968658585
aF24357.641467399335
aF20887.728459530077
aF18400.847233253968
aF22247.79439969315
aF17088.080022228463
aF28977.108084613155
aF23740.310077519425
aF16020.942408376906
aF22145.902415916695
aF24149.00449582529
aF18262.94489986505
aF17370.003340385196
asS'k__Bacteria.p__Firmicutes.c__Bacilli.o__Bacillales.f__Paenibacillaceae1.g__Paenibacillus'
p309
(lp310
F119.03344839900018
aF0.0
aF22602.518566354483
aF0.0
aF128.7001287001287
aF139.29516645772395
aF1039.65542848656
aF0.0
aF529.5207836907599
aF255.7217747091164
aF1250.3473186996387
aF434.65662126919733
aF0.0
aF104.71204188481674
aF118.42728564661303
aF0.0
aF103.76673238559711
aF0.0
asS'k__Bacteria.p__Proteobacteria.c__Deltaproteobacteria.o__Unassigned.f__Unassigned'
p311
(lp312
F7022.9734555410105
aF8409.180846853975
aF7749.434937035837
aF8149.260132961616
aF6821.106821106813
aF7104.053489343924
aF4455.666122085262
aF6216.585851050607
aF4765.687053216849
aF4347.270170054988
aF4167.824395665456
aF5505.650536076492
aF4844.961240310077
aF8481.675392670155
aF6039.791567977259
aF6037.251123956323
aF6848.604337449412
aF5344.6164124262405
asS'k__Bacteria.p__Proteobacteria.c__Gammaproteobacteria.o__Xanthomonadales.f__Xanthomonadaceae.g__Lysobacter'
p313
(lp314
F4166.170693965006
aF5144.440047487146
aF4951.027876439567
aF6648.080634784472
aF2445.3024453024514
aF3343.083994985367
aF7277.5879994059105
aF5967.922417008583
aF3309.5048980672573
aF3707.9657332821967
aF5418.171714365107
aF3477.252970153575
aF12233.527131782937
aF8586.387434554976
aF13382.28327806727
aF2954.399486191386
aF8405.105323233367
aF3674.423783543033
assS'subclass_sl'
p315
(dp316
g14
(I12
I18
tp317
sg16
(I0
I6
tp318
sg12
(I6
I12
tp319
ssS'norm'
p320
F1000000.0
sS'cls'
p321
(dp322
S'class'
p323
(S'KO'
p324
S'KO'
p325
S'KO'
p326
S'KO'
p327
S'KO'
p328
g7
S'OE'
p329
S'OE'
p330
S'OE'
p331
S'OE'
p332
S'OE'
p333
g3
S'WT'
p334
S'WT'
p335
S'WT'
p336
S'WT'
p337
S'WT'
p338
g5
tp339
sS'subclass'
p340
(lp341
S'KO_subcl'
p342
aS'KO_subcl'
p343
aS'KO_subcl'
p344
aS'KO_subcl'
p345
aS'KO_subcl'
p346
ag16
aS'OE_subcl'
p347
aS'OE_subcl'
p348
aS'OE_subcl'
p349
aS'OE_subcl'
p350
aS'OE_subcl'
p351
ag12
aS'WT_subcl'
p352
aS'WT_subcl'
p353
aS'WT_subcl'
p354
aS'WT_subcl'
p355
aS'WT_subcl'
p356
ag14
ass.